target datalayout = "e-m:e-p270:32:32-p271:32:32-p272:64:64-i64:64-i128:128-f80:128-n8:16:32:64-S128"
target triple = "x86_64-pc-linux-gnu"

@PyExc_OverflowError = external global ptr, align 8
@.str.15 = private unnamed_addr constant [18 x i8] c"mode out of range\00", align 1

; Function Attrs: nounwind uwtable
define internal void @fileperm(i32 noundef %0, ptr noundef %1) #0 {
  %3 = alloca i32, align 4
  %4 = alloca ptr, align 8
  store i32 %0, ptr %3, align 4, !tbaa !9
  store ptr %1, ptr %4, align 8, !tbaa !14
  %5 = load i32, ptr %3, align 4, !tbaa !9
  %6 = and i32 %5, 256
  %7 = icmp ne i32 %6, 0
  %8 = select i1 %7, i32 114, i32 45
  %9 = trunc i32 %8 to i8
  %10 = load ptr, ptr %4, align 8, !tbaa !14
  %11 = getelementptr i8, ptr %10, i64 0
  store i8 %9, ptr %11, align 1, !tbaa !11
  %12 = load i32, ptr %3, align 4, !tbaa !9
  %13 = and i32 %12, 128
  %14 = icmp ne i32 %13, 0
  %15 = select i1 %14, i32 119, i32 45
  %16 = trunc i32 %15 to i8
  %17 = load ptr, ptr %4, align 8, !tbaa !14
  %18 = getelementptr i8, ptr %17, i64 1
  store i8 %16, ptr %18, align 1, !tbaa !11
  %19 = load i32, ptr %3, align 4, !tbaa !9
  %20 = and i32 %19, 2048
  %21 = icmp ne i32 %20, 0
  br i1 %21, label %22, label %30

22:                                               ; preds = %2
  %23 = load i32, ptr %3, align 4, !tbaa !9
  %24 = and i32 %23, 64
  %25 = icmp ne i32 %24, 0
  %26 = select i1 %25, i32 115, i32 83
  %27 = trunc i32 %26 to i8
  %28 = load ptr, ptr %4, align 8, !tbaa !14
  %29 = getelementptr i8, ptr %28, i64 2
  store i8 %27, ptr %29, align 1, !tbaa !11
  br label %38

30:                                               ; preds = %2
  %31 = load i32, ptr %3, align 4, !tbaa !9
  %32 = and i32 %31, 64
  %33 = icmp ne i32 %32, 0
  %34 = select i1 %33, i32 120, i32 45
  %35 = trunc i32 %34 to i8
  %36 = load ptr, ptr %4, align 8, !tbaa !14
  %37 = getelementptr i8, ptr %36, i64 2
  store i8 %35, ptr %37, align 1, !tbaa !11
  br label %38

38:                                               ; preds = %30, %22
  %39 = load i32, ptr %3, align 4, !tbaa !9
  %40 = and i32 %39, 32
  %41 = icmp ne i32 %40, 0
  %42 = select i1 %41, i32 114, i32 45
  %43 = trunc i32 %42 to i8
  %44 = load ptr, ptr %4, align 8, !tbaa !14
  %45 = getelementptr i8, ptr %44, i64 3
  store i8 %43, ptr %45, align 1, !tbaa !11
  %46 = load i32, ptr %3, align 4, !tbaa !9
  %47 = and i32 %46, 16
  %48 = icmp ne i32 %47, 0
  %49 = select i1 %48, i32 119, i32 45
  %50 = trunc i32 %49 to i8
  %51 = load ptr, ptr %4, align 8, !tbaa !14
  %52 = getelementptr i8, ptr %51, i64 4
  store i8 %50, ptr %52, align 1, !tbaa !11
  %53 = load i32, ptr %3, align 4, !tbaa !9
  %54 = and i32 %53, 1024
  %55 = icmp ne i32 %54, 0
  br i1 %55, label %56, label %64

56:                                               ; preds = %38
  %57 = load i32, ptr %3, align 4, !tbaa !9
  %58 = and i32 %57, 8
  %59 = icmp ne i32 %58, 0
  %60 = select i1 %59, i32 115, i32 83
  %61 = trunc i32 %60 to i8
  %62 = load ptr, ptr %4, align 8, !tbaa !14
  %63 = getelementptr i8, ptr %62, i64 5
  store i8 %61, ptr %63, align 1, !tbaa !11
  br label %72

64:                                               ; preds = %38
  %65 = load i32, ptr %3, align 4, !tbaa !9
  %66 = and i32 %65, 8
  %67 = icmp ne i32 %66, 0
  %68 = select i1 %67, i32 120, i32 45
  %69 = trunc i32 %68 to i8
  %70 = load ptr, ptr %4, align 8, !tbaa !14
  %71 = getelementptr i8, ptr %70, i64 5
  store i8 %69, ptr %71, align 1, !tbaa !11
  br label %72

72:                                               ; preds = %64, %56
  %73 = load i32, ptr %3, align 4, !tbaa !9
  %74 = and i32 %73, 4
  %75 = icmp ne i32 %74, 0
  %76 = select i1 %75, i32 114, i32 45
  %77 = trunc i32 %76 to i8
  %78 = load ptr, ptr %4, align 8, !tbaa !14
  %79 = getelementptr i8, ptr %78, i64 6
  store i8 %77, ptr %79, align 1, !tbaa !11
  %80 = load i32, ptr %3, align 4, !tbaa !9
  %81 = and i32 %80, 2
  %82 = icmp ne i32 %81, 0
  %83 = select i1 %82, i32 119, i32 45
  %84 = trunc i32 %83 to i8
  %85 = load ptr, ptr %4, align 8, !tbaa !14
  %86 = getelementptr i8, ptr %85, i64 7
  store i8 %84, ptr %86, align 1, !tbaa !11
  %87 = load i32, ptr %3, align 4, !tbaa !9
  %88 = and i32 %87, 512
  %89 = icmp ne i32 %88, 0
  br i1 %89, label %90, label %98

90:                                               ; preds = %72
  %91 = load i32, ptr %3, align 4, !tbaa !9
  %92 = and i32 %91, 1
  %93 = icmp ne i32 %92, 0
  %94 = select i1 %93, i32 116, i32 84
  %95 = trunc i32 %94 to i8
  %96 = load ptr, ptr %4, align 8, !tbaa !14
  %97 = getelementptr i8, ptr %96, i64 8
  store i8 %95, ptr %97, align 1, !tbaa !11
  br label %106

98:                                               ; preds = %72
  %99 = load i32, ptr %3, align 4, !tbaa !9
  %100 = and i32 %99, 1
  %101 = icmp ne i32 %100, 0
  %102 = select i1 %101, i32 120, i32 45
  %103 = trunc i32 %102 to i8
  %104 = load ptr, ptr %4, align 8, !tbaa !14
  %105 = getelementptr i8, ptr %104, i64 8
  store i8 %103, ptr %105, align 1, !tbaa !11
  br label %106

106:                                              ; preds = %98, %90
  ret void
}

; Function Attrs: nounwind uwtable
define internal signext i8 @filetype(i32 noundef %0) #0 {
  %2 = alloca i8, align 1
  %3 = alloca i32, align 4
  store i32 %0, ptr %3, align 4, !tbaa !9
  %4 = load i32, ptr %3, align 4, !tbaa !9
  %5 = and i32 %4, 61440
  %6 = icmp eq i32 %5, 32768
  br i1 %6, label %7, label %8

7:                                                ; preds = %1
  store i8 45, ptr %2, align 1
  br label %39

8:                                                ; preds = %1
  %9 = load i32, ptr %3, align 4, !tbaa !9
  %10 = and i32 %9, 61440
  %11 = icmp eq i32 %10, 16384
  br i1 %11, label %12, label %13

12:                                               ; preds = %8
  store i8 100, ptr %2, align 1
  br label %39

13:                                               ; preds = %8
  %14 = load i32, ptr %3, align 4, !tbaa !9
  %15 = and i32 %14, 61440
  %16 = icmp eq i32 %15, 40960
  br i1 %16, label %17, label %18

17:                                               ; preds = %13
  store i8 108, ptr %2, align 1
  br label %39

18:                                               ; preds = %13
  %19 = load i32, ptr %3, align 4, !tbaa !9
  %20 = and i32 %19, 61440
  %21 = icmp eq i32 %20, 24576
  br i1 %21, label %22, label %23

22:                                               ; preds = %18
  store i8 98, ptr %2, align 1
  br label %39

23:                                               ; preds = %18
  %24 = load i32, ptr %3, align 4, !tbaa !9
  %25 = and i32 %24, 61440
  %26 = icmp eq i32 %25, 8192
  br i1 %26, label %27, label %28

27:                                               ; preds = %23
  store i8 99, ptr %2, align 1
  br label %39

28:                                               ; preds = %23
  %29 = load i32, ptr %3, align 4, !tbaa !9
  %30 = and i32 %29, 61440
  %31 = icmp eq i32 %30, 4096
  br i1 %31, label %32, label %33

32:                                               ; preds = %28
  store i8 112, ptr %2, align 1
  br label %39

33:                                               ; preds = %28
  %34 = load i32, ptr %3, align 4, !tbaa !9
  %35 = and i32 %34, 61440
  %36 = icmp eq i32 %35, 49152
  br i1 %36, label %37, label %38

37:                                               ; preds = %33
  store i8 115, ptr %2, align 1
  br label %39

38:                                               ; preds = %33
  store i8 63, ptr %2, align 1
  br label %39

39:                                               ; preds = %38, %37, %32, %27, %22, %17, %12, %7
  %40 = load i8, ptr %2, align 1
  ret i8 %40
}

; Function Attrs: nounwind uwtable
define internal i32 @_PyLong_AsMode_t(ptr noundef %0) #0 {
  %2 = alloca i32, align 4
  %3 = alloca ptr, align 8
  %4 = alloca i64, align 8
  %5 = alloca i32, align 4
  %6 = alloca i32, align 4
  store ptr %0, ptr %3, align 8, !tbaa !4
  call void @llvm.lifetime.start.p0(i64 8, ptr %4) #4
  call void @llvm.lifetime.start.p0(i64 4, ptr %5) #4
  %7 = load ptr, ptr %3, align 8, !tbaa !4
  %8 = call i64 @PyLong_AsUnsignedLong(ptr noundef %7)
  store i64 %8, ptr %4, align 8, !tbaa !12
  %9 = load i64, ptr %4, align 8, !tbaa !12
  %10 = icmp eq i64 %9, -1
  br i1 %10, label %11, label %15

11:                                               ; preds = %1
  %12 = call ptr @PyErr_Occurred()
  %13 = icmp ne ptr %12, null
  br i1 %13, label %14, label %15

14:                                               ; preds = %11
  store i32 -1, ptr %2, align 4
  store i32 1, ptr %6, align 4
  br label %26

15:                                               ; preds = %11, %1
  %16 = load i64, ptr %4, align 8, !tbaa !12
  %17 = trunc i64 %16 to i32
  store i32 %17, ptr %5, align 4, !tbaa !9
  %18 = load i32, ptr %5, align 4, !tbaa !9
  %19 = zext i32 %18 to i64
  %20 = load i64, ptr %4, align 8, !tbaa !12
  %21 = icmp ne i64 %19, %20
  br i1 %21, label %22, label %24

22:                                               ; preds = %15
  %23 = load ptr, ptr @PyExc_OverflowError, align 8, !tbaa !4
  call void @PyErr_SetString(ptr noundef %23, ptr noundef @.str.15)
  store i32 -1, ptr %2, align 4
  store i32 1, ptr %6, align 4
  br label %26

24:                                               ; preds = %15
  %25 = load i32, ptr %5, align 4, !tbaa !9
  store i32 %25, ptr %2, align 4
  store i32 1, ptr %6, align 4
  br label %26

26:                                               ; preds = %24, %22, %14
  call void @llvm.lifetime.end.p0(i64 4, ptr %5) #4
  call void @llvm.lifetime.end.p0(i64 8, ptr %4) #4
  %27 = load i32, ptr %2, align 4
  ret i32 %27
}

; Function Attrs: nounwind uwtable
define internal ptr @stat_filemode(ptr noundef %0, ptr noundef %1) #0 {
  %3 = alloca ptr, align 8
  %4 = alloca ptr, align 8
  %5 = alloca ptr, align 8
  %6 = alloca [10 x i8], align 1
  %7 = alloca i32, align 4
  %8 = alloca i32, align 4
  store ptr %0, ptr %4, align 8, !tbaa !4
  store ptr %1, ptr %5, align 8, !tbaa !4
  call void @llvm.lifetime.start.p0(i64 10, ptr %6) #4
  call void @llvm.lifetime.start.p0(i64 4, ptr %7) #4
  %9 = load ptr, ptr %5, align 8, !tbaa !4
  %10 = call i32 @_PyLong_AsMode_t(ptr noundef %9)
  store i32 %10, ptr %7, align 4, !tbaa !9
  %11 = load i32, ptr %7, align 4, !tbaa !9
  %12 = icmp eq i32 %11, -1
  br i1 %12, label %13, label %17

13:                                               ; preds = %2
  %14 = call ptr @PyErr_Occurred()
  %15 = icmp ne ptr %14, null
  br i1 %15, label %16, label %17

16:                                               ; preds = %13
  store ptr null, ptr %3, align 8
  store i32 1, ptr %8, align 4
  br label %25

17:                                               ; preds = %13, %2
  %18 = load i32, ptr %7, align 4, !tbaa !9
  %19 = call signext i8 @filetype(i32 noundef %18)
  %20 = getelementptr [10 x i8], ptr %6, i64 0, i64 0
  store i8 %19, ptr %20, align 1, !tbaa !11
  %21 = load i32, ptr %7, align 4, !tbaa !9
  %22 = getelementptr [10 x i8], ptr %6, i64 0, i64 1
  call void @fileperm(i32 noundef %21, ptr noundef %22)
  %23 = getelementptr inbounds [10 x i8], ptr %6, i64 0, i64 0
  %24 = call ptr @PyUnicode_FromStringAndSize(ptr noundef %23, i64 noundef 10)
  store ptr %24, ptr %3, align 8
  store i32 1, ptr %8, align 4
  br label %25

25:                                               ; preds = %17, %16
  call void @llvm.lifetime.end.p0(i64 4, ptr %7) #4
  call void @llvm.lifetime.end.p0(i64 10, ptr %6) #4
  %26 = load ptr, ptr %3, align 8
  ret ptr %26
}