; Function Attrs: nounwind uwtable
define internal ptr @stat_filemode(ptr readnone captures(none) %0, ptr noundef %1) #0 {
  %3 = alloca [10 x i8], align 1
  call void @llvm.lifetime.start.p0(i64 10, ptr nonnull %3) #3
  %4 = tail call i64 @PyLong_AsUnsignedLong(ptr noundef %1) #3
  %5 = icmp eq i64 %4, -1
  br i1 %5, label %6, label %8

6:                                                ; preds = %2
  %7 = tail call ptr @PyErr_Occurred() #3
  %.not.i = icmp eq ptr %7, null
  br i1 %.not.i, label %.thread.i, label %_PyLong_AsMode_t.exit.thread

8:                                                ; preds = %2
  %.not6.i = icmp ult i64 %4, 4294967296
  br i1 %.not6.i, label %_PyLong_AsMode_t.exit, label %.thread.i

.thread.i:                                        ; preds = %8, %6
  %9 = load ptr, ptr @PyExc_OverflowError, align 8, !tbaa !4
  tail call void @PyErr_SetString(ptr noundef %9, ptr noundef nonnull @.str.15) #3
  br label %_PyLong_AsMode_t.exit.thread

_PyLong_AsMode_t.exit:                            ; preds = %8
  %10 = trunc nuw i64 %4 to i32
  %11 = icmp eq i64 %4, 4294967295
  br i1 %11, label %_PyLong_AsMode_t.exit.thread, label %.split

.split:                                           ; preds = %_PyLong_AsMode_t.exit
  %12 = and i32 %10, 61440
  %13 = add nsw i32 %12, -4096
  %14 = icmp ult i32 %13, 49152
  br i1 %14, label %switch.lookup, label %filetype.exit

switch.lookup:                                    ; preds = %.split
  %15 = lshr exact i32 %13, 12
  %16 = zext nneg i32 %15 to i64
  %switch.gep = getelementptr inbounds nuw [12 x i8], ptr @switch.table.stat_filemode, i64 0, i64 %16
  %switch.load = load i8, ptr %switch.gep, align 1
  br label %filetype.exit

filetype.exit:                                    ; preds = %.split, %switch.lookup
  %.0.i6 = phi i8 [ %switch.load, %switch.lookup ], [ 63, %.split ]
  store i8 %.0.i6, ptr %3, align 1, !tbaa !9
  %17 = getelementptr inbounds nuw i8, ptr %3, i64 1
  %18 = and i32 %10, 256
  %.not.i7 = icmp eq i32 %18, 0
  %19 = select i1 %.not.i7, i8 45, i8 114
  store i8 %19, ptr %17, align 1, !tbaa !9
  %20 = and i32 %10, 128
  %.not26.i = icmp eq i32 %20, 0
  %21 = select i1 %.not26.i, i8 45, i8 119
  %22 = getelementptr inbounds nuw i8, ptr %3, i64 2
  store i8 %21, ptr %22, align 1, !tbaa !9
  %23 = and i32 %10, 2048
  %.not27.i = icmp eq i32 %23, 0
  %24 = and i32 %10, 64
  %.not28.i = icmp eq i32 %24, 0
  %25 = select i1 %.not28.i, i8 45, i8 120
  %26 = select i1 %.not28.i, i8 83, i8 115
  %.sink.i = select i1 %.not27.i, i8 %25, i8 %26
  %27 = getelementptr inbounds nuw i8, ptr %3, i64 3
  store i8 %.sink.i, ptr %27, align 1, !tbaa !9
  %28 = and i32 %10, 32
  %.not30.i = icmp eq i32 %28, 0
  %29 = select i1 %.not30.i, i8 45, i8 114
  %30 = getelementptr inbounds nuw i8, ptr %3, i64 4
  store i8 %29, ptr %30, align 1, !tbaa !9
  %31 = and i32 %10, 16
  %.not31.i = icmp eq i32 %31, 0
  %32 = select i1 %.not31.i, i8 45, i8 119
  %33 = getelementptr inbounds nuw i8, ptr %3, i64 5
  store i8 %32, ptr %33, align 1, !tbaa !9
  %34 = and i32 %10, 1024
  %.not32.i = icmp eq i32 %34, 0
  %35 = and i32 %10, 8
  %.not33.i = icmp eq i32 %35, 0
  %36 = select i1 %.not33.i, i8 45, i8 120
  %37 = select i1 %.not33.i, i8 83, i8 115
  %.sink40.i = select i1 %.not32.i, i8 %36, i8 %37
  %38 = getelementptr inbounds nuw i8, ptr %3, i64 6
  store i8 %.sink40.i, ptr %38, align 1, !tbaa !9
  %39 = and i32 %10, 4
  %.not35.i = icmp eq i32 %39, 0
  %40 = select i1 %.not35.i, i8 45, i8 114
  %41 = getelementptr inbounds nuw i8, ptr %3, i64 7
  store i8 %40, ptr %41, align 1, !tbaa !9
  %42 = and i32 %10, 2
  %.not36.i = icmp eq i32 %42, 0
  %43 = select i1 %.not36.i, i8 45, i8 119
  %44 = getelementptr inbounds nuw i8, ptr %3, i64 8
  store i8 %43, ptr %44, align 1, !tbaa !9
  %45 = and i32 %10, 512
  %.not37.i = icmp eq i32 %45, 0
  %46 = and i32 %10, 1
  %.not38.i = icmp eq i32 %46, 0
  %47 = select i1 %.not38.i, i8 45, i8 120
  %48 = select i1 %.not38.i, i8 84, i8 116
  %.sink41.i = select i1 %.not37.i, i8 %47, i8 %48
  br label %58

_PyLong_AsMode_t.exit.thread:                     ; preds = %6, %.thread.i, %_PyLong_AsMode_t.exit
  %49 = tail call ptr @PyErr_Occurred() #3
  %.not = icmp eq ptr %49, null
  br i1 %.not, label %.split4, label %61

.split4:                                          ; preds = %_PyLong_AsMode_t.exit.thread
  store i8 63, ptr %3, align 1, !tbaa !9
  %50 = getelementptr inbounds nuw i8, ptr %3, i64 1
  store i8 114, ptr %50, align 1, !tbaa !9
  %51 = getelementptr inbounds nuw i8, ptr %3, i64 2
  store i8 119, ptr %51, align 1, !tbaa !9
  %52 = getelementptr inbounds nuw i8, ptr %3, i64 3
  store i8 115, ptr %52, align 1, !tbaa !9
  %53 = getelementptr inbounds nuw i8, ptr %3, i64 4
  store i8 114, ptr %53, align 1, !tbaa !9
  %54 = getelementptr inbounds nuw i8, ptr %3, i64 5
  store i8 119, ptr %54, align 1, !tbaa !9
  %55 = getelementptr inbounds nuw i8, ptr %3, i64 6
  store i8 115, ptr %55, align 1, !tbaa !9
  %56 = getelementptr inbounds nuw i8, ptr %3, i64 7
  store i8 114, ptr %56, align 1, !tbaa !9
  %57 = getelementptr inbounds nuw i8, ptr %3, i64 8
  store i8 119, ptr %57, align 1, !tbaa !9
  br label %58

58:                                               ; preds = %.split4, %filetype.exit
  %.sink = phi i8 [ 116, %.split4 ], [ %.sink41.i, %filetype.exit ]
  %59 = getelementptr inbounds nuw i8, ptr %3, i64 9
  store i8 %.sink, ptr %59, align 1, !tbaa !9
  %60 = call ptr @PyUnicode_FromStringAndSize(ptr noundef nonnull %3, i64 noundef 10) #3
  br label %61

61:                                               ; preds = %_PyLong_AsMode_t.exit.thread, %58
  %.0 = phi ptr [ %60, %58 ], [ null, %_PyLong_AsMode_t.exit.thread ]
  call void @llvm.lifetime.end.p0(i64 10, ptr nonnull %3) #3
  ret ptr %.0
}